ccopy_reg
_reconstructor
p0
(cnetworkx.classes.graph
Graph
p1
c__builtin__
object
p2
Ntp3
Rp4
(dp5
S'node'
p6
(dp7
S'G26'
p8
(dp9
sS'G24'
p10
(dp11
sS'G22'
p12
(dp13
sS'G20'
p14
(dp15
sS'G21'
p16
(dp17
sS'G28'
p18
(dp19
sS'G29'
p20
(dp21
sS'719'
p22
(dp23
sS'718'
p24
(dp25
sS'716'
p26
(dp27
sS'715'
p28
(dp29
sS'714'
p30
(dp31
sS'713'
p32
(dp33
sS'712'
p34
(dp35
sS'711'
p36
(dp37
sS'710'
p38
(dp39
sS'B23'
p40
(dp41
sS'B22'
p42
(dp43
sS'B21'
p44
(dp45
sS'B20'
p46
(dp47
sS'J27'
p48
(dp49
sS'J24'
p50
(dp51
sS'J23'
p52
(dp53
sS'J22'
p54
(dp55
sS'J21'
p56
(dp57
sS'J20'
p58
(dp59
sS'J29'
p60
(dp61
sS'J28'
p62
(dp63
sS'F05'
p64
(dp65
sS'F04'
p66
(dp67
sS'F07'
p68
(dp69
sS'F06'
p70
(dp71
sS'F01'
p72
(dp73
sS'A54'
p74
(dp75
sS'F03'
p76
(dp77
sS'F02'
p78
(dp79
sS'A59'
p80
(dp81
sS'F09'
p82
(dp83
sS'H10'
p84
(dp85
sS'H11'
p86
(dp87
sS'H12'
p88
(dp89
sS'H13'
p90
(dp91
sS'M20'
p92
(dp93
sS'M21'
p94
(dp95
sS'M22'
p96
(dp97
sS'M23'
p98
(dp99
sS'108'
p100
(dp101
sS'109'
p102
(dp103
sS'103'
p104
(dp105
sS'101'
p106
(dp107
sS'106'
p108
(dp109
sS'107'
p110
(dp111
sS'104'
p112
(dp113
sS'902'
p114
(dp115
sS'A46'
p116
(dp117
sS'901'
p118
(dp119
sS'A47'
p120
(dp121
sS'A51'
p122
(dp123
sS'30'
p124
(dp125
sS'F18'
p126
(dp127
sS'640'
p128
(dp129
sS'A45'
p130
(dp131
sS'A42'
p132
(dp133
sS'A40'
p134
(dp135
sS'A41'
p136
(dp137
sS'F16'
p138
(dp139
sS'A48'
p140
(dp141
sS'A49'
p142
(dp143
sS'A52'
p144
(dp145
sS'G19'
p146
(dp147
sS'G18'
p148
(dp149
sS'G16'
p150
(dp151
sS'G15'
p152
(dp153
sS'G14'
p154
(dp155
sS'G13'
p156
(dp157
sS'G12'
p158
(dp159
sS'G11'
p160
(dp161
sS'G10'
p162
(dp163
sS'A55'
p164
(dp165
sS'Q01'
p166
(dp167
sS'D38'
p168
(dp169
sS'D39'
p170
(dp171
sS'D37'
p172
(dp173
sS'D34'
p174
(dp175
sS'D35'
p176
(dp177
sS'D32'
p178
(dp179
sS'D33'
p180
(dp181
sS'D30'
p182
(dp183
sS'D31'
p184
(dp185
sS'238'
p186
(dp187
sS'239'
p188
(dp189
sS'234'
p190
(dp191
sS'235'
p192
(dp193
sS'236'
p194
(dp195
sS'237'
p196
(dp197
sS'230'
p198
(dp199
sS'231'
p200
(dp201
sS'232'
p202
(dp203
sS'233'
p204
(dp205
sS'618'
p206
(dp207
sS'619'
p208
(dp209
sS'140'
p210
(dp211
sS'612'
p212
(dp213
sS'613'
p214
(dp215
sS'610'
p216
(dp217
sS'611'
p218
(dp219
sS'616'
p220
(dp221
sS'617'
p222
(dp223
sS'614'
p224
(dp225
sS'615'
p226
(dp227
sS'D43'
p228
(dp229
sS'D42'
p230
(dp231
sS'D41'
p232
(dp233
sS'D40'
p234
(dp235
sS'A09'
p236
(dp237
sS'A02'
p238
(dp239
sS'A03'
p240
(dp241
sS'A06'
p242
(dp243
sS'A07'
p244
(dp245
sS'A05'
p246
(dp247
sS'133'
p248
(dp249
sS'132'
p250
(dp251
sS'131'
p252
(dp253
sS'130'
p254
(dp255
sS'137'
p256
(dp257
sS'136'
p258
(dp259
sS'135'
p260
(dp261
sS'134'
p262
(dp263
sS'139'
p264
(dp265
sS'138'
p266
(dp267
sS'24'
p268
(dp269
sS'25'
p270
(dp271
sS'26'
p272
(dp273
sS'27'
p274
(dp275
sS'20'
p276
(dp277
sS'21'
p278
(dp279
sS'22'
p280
(dp281
sS'23'
p282
(dp283
sS'28'
p284
(dp285
sS'29'
p286
(dp287
sS'407'
p288
(dp289
sS'406'
p290
(dp291
sS'405'
p292
(dp293
sS'402'
p294
(dp295
sS'401'
p296
(dp297
sS'R34'
p298
(dp299
sS'R35'
p300
(dp301
sS'R36'
p302
(dp303
sS'R30'
p304
(dp305
sS'R31'
p306
(dp307
sS'409'
p308
(dp309
sS'408'
p310
(dp311
sS'L08'
p312
(dp313
sS'L06'
p314
(dp315
sS'L05'
p316
(dp317
sS'L03'
p318
(dp319
sS'L02'
p320
(dp321
sS'L01'
p322
(dp323
sS'708'
p324
(dp325
sS'709'
p326
(dp327
sS'705'
p328
(dp329
sS'706'
p330
(dp331
sS'707'
p332
(dp333
sS'701'
p334
(dp335
sS'702'
p336
(dp337
sS'J30'
p338
(dp339
sS'J31'
p340
(dp341
sS'D07'
p342
(dp343
sS'D06'
p344
(dp345
sS'D05'
p346
(dp347
sS'D04'
p348
(dp349
sS'D03'
p350
(dp351
sS'D01'
p352
(dp353
sS'D09'
p354
(dp355
sS'D08'
p356
(dp357
sS'245'
p358
(dp359
sS'244'
p360
(dp361
sS'247'
p362
(dp363
sS'246'
p364
(dp365
sS'241'
p366
(dp367
sS'A43'
p368
(dp369
sS'243'
p370
(dp371
sS'242'
p372
(dp373
sS'F12'
p374
(dp375
sS'F11'
p376
(dp377
sS'249'
p378
(dp379
sS'248'
p380
(dp381
sS'F14'
p382
(dp383
sS'F15'
p384
(dp385
sS'623'
p386
(dp387
sS'622'
p388
(dp389
sS'621'
p390
(dp391
sS'627'
p392
(dp393
sS'626'
p394
(dp395
sS'625'
p396
(dp397
sS'624'
p398
(dp399
sS'629'
p400
(dp401
sS'628'
p402
(dp403
sS'A33'
p404
(dp405
sS'A32'
p406
(dp407
sS'A31'
p408
(dp409
sS'A30'
p410
(dp411
sS'A36'
p412
(dp413
sS'A34'
p414
(dp415
sS'A38'
p416
(dp417
sS'L26'
p418
(dp419
sS'J16'
p420
(dp421
sS'J17'
p422
(dp423
sS'10'
p424
(dp425
sS'13'
p426
(dp427
sS'12'
p428
(dp429
sS'15'
p430
(dp431
sS'14'
p432
(dp433
sS'17'
p434
(dp435
sS'A50'
p436
(dp437
sS'19'
p438
(dp439
sS'18'
p440
(dp441
sS'A53'
p442
(dp443
sS'M11'
p444
(dp445
sS'M10'
p446
(dp447
sS'M13'
p448
(dp449
sS'M12'
p450
(dp451
sS'R41'
p452
(dp453
sS'M14'
p454
(dp455
sS'R43'
p456
(dp457
sS'M16'
p458
(dp459
sS'M19'
p460
(dp461
sS'M18'
p462
(dp463
sS'A57'
p464
(dp465
sS'G08'
p466
(dp467
sS'G09'
p468
(dp469
sS'G05'
p470
(dp471
sS'G06'
p472
(dp473
sS'G07'
p474
(dp475
sS'201'
p476
(dp477
sS'205'
p478
(dp479
sS'204'
p480
(dp481
sS'207'
p482
(dp483
sS'206'
p484
(dp485
sS'209'
p486
(dp487
sS'208'
p488
(dp489
sS'F23'
p490
(dp491
sS'F22'
p492
(dp493
sS'F21'
p494
(dp495
sS'F20'
p496
(dp497
sS'F27'
p498
(dp499
sS'F26'
p500
(dp501
sS'F25'
p502
(dp503
sS'F24'
p504
(dp505
sS'F29'
p506
(dp507
sS'120'
p508
(dp509
sS'121'
p510
(dp511
sS'122'
p512
(dp513
sS'123'
p514
(dp515
sS'124'
p516
(dp517
sS'125'
p518
(dp519
sS'126'
p520
(dp521
sS'127'
p522
(dp523
sS'128'
p524
(dp525
sS'129'
p526
(dp527
sS'R01'
p528
(dp529
sS'R03'
p530
(dp531
sS'R05'
p532
(dp533
sS'R04'
p534
(dp535
sS'R06'
p536
(dp537
sS'R09'
p538
(dp539
sS'R08'
p540
(dp541
sS'16'
p542
(dp543
sS'414'
p544
(dp545
sS'415'
p546
(dp547
sS'416'
p548
(dp549
sS'410'
p550
(dp551
sS'411'
p552
(dp553
sS'412'
p554
(dp555
sS'413'
p556
(dp557
sS'418'
p558
(dp559
sS'419'
p560
(dp561
sS'L19'
p562
(dp563
sS'L14'
p564
(dp565
sS'L15'
p566
(dp567
sS'L16'
p568
(dp569
sS'L17'
p570
(dp571
sS'L10'
p572
(dp573
sS'L11'
p574
(dp575
sS'L12'
p576
(dp577
sS'L13'
p578
(dp579
sS'02'
p580
(dp581
sS'03'
p582
(dp583
sS'01'
p584
(dp585
sS'06'
p586
(dp587
sS'07'
p588
(dp589
sS'04'
p590
(dp591
sS'05'
p592
(dp593
sS'08'
p594
(dp595
sS'09'
p596
(dp597
sS'R40'
p598
(dp599
sS'H14'
p600
(dp601
sS'R42'
p602
(dp603
sS'H15'
p604
(dp605
sS'B04'
p606
(dp607
sS'B06'
p608
(dp609
sS'B08'
p610
(dp611
sS'D14'
p612
(dp613
sS'D15'
p614
(dp615
sS'D16'
p616
(dp617
sS'D17'
p618
(dp619
sS'D10'
p620
(dp621
sS'D11'
p622
(dp623
sS'D12'
p624
(dp625
sS'D13'
p626
(dp627
sS'D18'
p628
(dp629
sS'D19'
p630
(dp631
sS'252'
p632
(dp633
sS'253'
p634
(dp635
sS'250'
p636
(dp637
sS'251'
p638
(dp639
sS'256'
p640
(dp641
sS'257'
p642
(dp643
sS'254'
p644
(dp645
sS'255'
p646
(dp647
sS'504'
p648
(dp649
sS'505'
p650
(dp651
sS'502'
p652
(dp653
sS'503'
p654
(dp655
sS'R39'
p656
(dp657
sS'630'
p658
(dp659
sS'631'
p660
(dp661
sS'632'
p662
(dp663
sS'633'
p664
(dp665
sS'634'
p666
(dp667
sS'635'
p668
(dp669
sS'636'
p670
(dp671
sS'637'
p672
(dp673
sS'638'
p674
(dp675
sS'639'
p676
(dp677
sS'A20'
p678
(dp679
sS'A21'
p680
(dp681
sS'A22'
p682
(dp683
sS'A24'
p684
(dp685
sS'A25'
p686
(dp687
sS'A27'
p688
(dp689
sS'A28'
p690
(dp691
sS'R32'
p692
(dp693
sS'R33'
p694
(dp695
sS'31'
p696
(dp697
sS'M06'
p698
(dp699
sS'M04'
p700
(dp701
sS'M05'
p702
(dp703
sS'M01'
p704
(dp705
sS'M08'
p706
(dp707
sS'M09'
p708
(dp709
sS'G31'
p710
(dp711
sS'G30'
p712
(dp713
sS'G33'
p714
(dp715
sS'G32'
p716
(dp717
sS'G35'
p718
(dp719
sS'G34'
p720
(dp721
sS'G36'
p722
(dp723
sS'E01'
p724
(dp725
sS'216'
p726
(dp727
sS'217'
p728
(dp729
sS'214'
p730
(dp731
sS'215'
p732
(dp733
sS'212'
p734
(dp735
sS'213'
p736
(dp737
sS'210'
p738
(dp739
sS'211'
p740
(dp741
sS'218'
p742
(dp743
sS'219'
p744
(dp745
sS'F30'
p746
(dp747
sS'F31'
p748
(dp749
sS'F32'
p750
(dp751
sS'F33'
p752
(dp753
sS'F34'
p754
(dp755
sS'F35'
p756
(dp757
sS'F36'
p758
(dp759
sS'F38'
p760
(dp761
sS'F39'
p762
(dp763
sS'A64'
p764
(dp765
sS'A65'
p766
(dp767
sS'A60'
p768
(dp769
sS'A61'
p770
(dp771
sS'A63'
p772
(dp773
sS'H09'
p774
(dp775
sS'H08'
p776
(dp777
sS'H03'
p778
(dp779
sS'H02'
p780
(dp781
sS'H01'
p782
(dp783
sS'H07'
p784
(dp785
sS'H06'
p786
(dp787
sS'H04'
p788
(dp789
sS'115'
p790
(dp791
sS'114'
p792
(dp793
sS'117'
p794
(dp795
sS'116'
p796
(dp797
sS'111'
p798
(dp799
sS'110'
p800
(dp801
sS'113'
p802
(dp803
sS'112'
p804
(dp805
sS'119'
p806
(dp807
sS'118'
p808
(dp809
sS'R16'
p810
(dp811
sS'R17'
p812
(dp813
sS'R14'
p814
(dp815
sS'R15'
p816
(dp817
sS'R13'
p818
(dp819
sS'R11'
p820
(dp821
sS'R18'
p822
(dp823
sS'R19'
p824
(dp825
sS'A44'
p826
(dp827
sS'420'
p828
(dp829
sS'423'
p830
(dp831
sS'301'
p832
(dp833
sS'302'
p834
(dp835
sS'B16'
p836
(dp837
sS'B17'
p838
(dp839
sS'B14'
p840
(dp841
sS'B15'
p842
(dp843
sS'B12'
p844
(dp845
sS'B13'
p846
(dp847
sS'B10'
p848
(dp849
sS'B18'
p850
(dp851
sS'B19'
p852
(dp853
sS'L21'
p854
(dp855
sS'L20'
p856
(dp857
sS'L22'
p858
(dp859
sS'L25'
p860
(dp861
sS'L24'
p862
(dp863
sS'L27'
p864
(dp865
sS'J19'
p866
(dp867
sS'L29'
p868
(dp869
sS'L28'
p870
(dp871
sS'J14'
p872
(dp873
sS'J15'
p874
(dp875
sS'J12'
p876
(dp877
sS'J13'
p878
(dp879
sS'D29'
p880
(dp881
sS'D28'
p882
(dp883
sS'D21'
p884
(dp885
sS'D20'
p886
(dp887
sS'D22'
p888
(dp889
sS'D25'
p890
(dp891
sS'D24'
p892
(dp893
sS'D27'
p894
(dp895
sS'D26'
p896
(dp897
sS'229'
p898
(dp899
sS'228'
p900
(dp901
sS'227'
p902
(dp903
sS'226'
p904
(dp905
sS'225'
p906
(dp907
sS'224'
p908
(dp909
sS'222'
p910
(dp911
sS'221'
p912
(dp913
sS'220'
p914
(dp915
sS'724'
p916
(dp917
sS'725'
p918
(dp919
sS'723'
p920
(dp921
sS'720'
p922
(dp923
sS'721'
p924
(dp925
sS'501'
p926
(dp927
sS'604'
p928
(dp929
sS'607'
p930
(dp931
sS'606'
p932
(dp933
sS'601'
p934
(dp935
sS'603'
p936
(dp937
sS'602'
p938
(dp939
sS'609'
p940
(dp941
sS'608'
p942
(dp943
sS'A15'
p944
(dp945
sS'A14'
p946
(dp947
sS'A17'
p948
(dp949
sS'A16'
p950
(dp951
sS'A11'
p952
(dp953
sS'A10'
p954
(dp955
sS'A12'
p956
(dp957
sS'A19'
p958
(dp959
sS'A18'
p960
(dp961
sS'R45'
p962
(dp963
sS'R44'
p964
(dp965
sS'R29'
p966
(dp967
sS'R28'
p968
(dp969
sS'R27'
p970
(dp971
sS'R26'
p972
(dp973
sS'R25'
p974
(dp975
sS'R24'
p976
(dp977
sS'R23'
p978
(dp979
sS'R22'
p980
(dp981
sS'R21'
p982
(dp983
sS'R20'
p984
(dp985
ssS'graph'
p986
(dp987
sS'edge'
p988
(dp989
g8
(dp990
g10
(dp991
S'time'
p992
I150
ssg18
(dp993
g992
I60
sssg10
(dp994
g8
g991
sg12
(dp995
g992
I60
sssg12
(dp996
g10
g995
ssg14
(dp997
g154
(dp998
g992
I240
ssg606
(dp999
g992
I150
ssg146
(dp1000
g992
I120
ssg16
(dp1001
g992
I120
sssg16
(dp1002
S'G14'
p1003
(dp1004
g992
I330
ssg82
(dp1005
g992
I90
ssS'G20'
p1006
g1001
sS'R11'
p1007
(dp1008
g992
I330
sssg18
(dp1009
g8
g993
sg20
(dp1010
g992
I150
sssg20
(dp1011
g712
(dp1012
g992
I90
ssg18
g1010
ssg22
(dp1013
g922
(dp1014
g992
I120
ssg24
(dp1015
g992
I90
sssg24
(dp1016
g26
(dp1017
g992
I120
ssS'712'
p1018
(dp1019
g992
I330
ssg22
g1015
ssg26
(dp1020
g28
(dp1021
g992
I90
ssg24
g1017
ssg28
(dp1022
g26
g1021
sg30
(dp1023
g992
I60
sssg30
(dp1024
g28
g1023
sg32
(dp1025
g992
I60
sssg32
(dp1026
g30
g1025
sg34
(dp1027
g992
I90
sssg34
(dp1028
S'707'
p1029
(dp1030
g992
I240
ssg32
g1027
sg36
(dp1031
g992
I120
ssS'718'
p1032
g1019
ssg36
(dp1033
g34
g1031
sg38
(dp1034
g992
I90
sssg38
(dp1035
g326
(dp1036
g992
I60
ssg36
g1034
ssg40
(dp1037
g228
(dp1038
g992
I240
ssg42
(dp1039
g992
I120
sssg42
(dp1040
g40
g1039
sg44
(dp1041
g992
I90
sssg44
(dp1042
g42
g1041
sg46
(dp1043
g992
I60
sssg46
(dp1044
g44
g1043
sg852
(dp1045
g992
I90
sssg48
(dp1046
g50
(dp1047
g992
I120
ssS'J23'
p1048
(dp1049
g992
I150
ssS'J29'
p1050
(dp1051
g992
I150
ssg62
(dp1052
g992
I90
sssg50
(dp1053
g48
g1047
sg52
(dp1054
g992
I90
ssS'J22'
p1055
(dp1056
g992
I150
sssg52
(dp1057
S'J27'
p1058
g1049
sg50
g1054
sg54
(dp1059
g992
I90
ssS'J21'
p1060
(dp1061
g992
I150
sssg54
(dp1062
S'J24'
p1063
g1056
sg52
g1059
sg56
(dp1064
g992
I60
ssS'J20'
p1065
(dp1066
g992
I150
sssg56
(dp1067
g1048
g1061
sg54
g1064
sg58
(dp1068
g992
I120
sssg58
(dp1069
S'J17'
p1070
(dp1071
g992
I150
ssg1055
g1066
sg56
g1068
sg866
(dp1072
g992
I90
sssg60
(dp1073
S'J27'
p1074
g1051
sg338
(dp1075
g992
I90
ssS'J31'
p1076
(dp1077
g992
I150
ssg62
(dp1078
g992
I90
sssg62
(dp1079
g48
g1052
sS'J30'
p1080
(dp1081
g992
I150
ssg60
g1078
ssg64
(dp1082
g66
(dp1083
g992
I90
ssg70
(dp1084
g992
I120
ssg474
(dp1085
g992
I90
sssg66
(dp1086
g64
g1083
sg76
(dp1087
g992
I60
sssg68
(dp1088
g70
(dp1089
g992
I90
ssg466
(dp1090
g992
I120
sssg70
(dp1091
g64
g1084
sg68
g1089
sS'G07'
p1092
(dp1093
g992
I180
ssS'G08'
p1094
(dp1095
g992
I150
ssS'F03'
p1096
(dp1097
g992
I210
sssg72
(dp1098
g1096
(dp1099
g992
I180
ssg78
(dp1100
g992
I120
sssg74
(dp1101
g442
(dp1102
g992
I90
ssg164
(dp1103
g992
I90
sssg76
(dp1104
g66
g1087
sS'F06'
p1105
g1097
sS'F01'
p1106
g1099
sg78
(dp1107
g992
I90
sssg78
(dp1108
g72
g1100
sg76
g1107
ssg80
(dp1109
g768
(dp1110
g992
I90
ssg464
(dp1111
g992
I90
sssg82
(dp1112
g376
(dp1113
g992
I180
ssg16
g1005
ssg84
(dp1114
g86
(dp1115
g992
I90
ssg774
(dp1116
g992
I120
sssg86
(dp1117
g84
g1115
ssg88
(dp1118
g90
(dp1119
g992
I90
ssS'H04'
p1120
(dp1121
g992
I210
sssg90
(dp1122
g88
g1119
sg600
(dp1123
g992
I120
sssg92
(dp1124
g460
(dp1125
g992
I120
ssg94
(dp1126
g992
I120
sssg94
(dp1127
g92
g1126
sg96
(dp1128
g992
I90
sssg96
(dp1129
S'M21'
p1130
g1128
sg98
(dp1131
g992
I90
sssg98
(dp1132
g96
g1131
ssg100
(dp1133
g102
(dp1134
g992
I90
ssg110
(dp1135
g992
I90
sssg102
(dp1136
g100
g1134
sg800
(dp1137
g992
I60
sssg104
(dp1138
g106
(dp1139
g992
I90
ssg112
(dp1140
g992
I90
sssg106
(dp1141
g104
g1139
ssg108
(dp1142
g110
(dp1143
g992
I90
ssg112
(dp1144
g992
I90
sssg110
(dp1145
g100
g1135
sg108
g1143
ssg112
(dp1146
g104
g1140
sg108
g1144
ssg114
(dp1147
g118
(dp1148
g992
I90
sssg116
(dp1149
g120
(dp1150
g992
I90
ssg130
(dp1151
g992
I60
ssS'A42'
p1152
(dp1153
g992
I300
ssS'A48'
p1154
(dp1155
g992
I180
sssg118
(dp1156
g114
g1148
ssg120
(dp1157
g116
g1150
sg140
(dp1158
g992
I90
sssg122
(dp1159
g436
(dp1160
g992
I60
ssg144
(dp1161
g992
I120
ssS'A55'
p1162
(dp1163
g992
I240
ssg1154
(dp1164
g992
I180
sssg124
(dp1165
g696
(dp1166
g992
I180
ssg286
(dp1167
g992
I120
sssg126
(dp1168
g138
(dp1169
g992
I150
ssg136
(dp1170
g992
I90
sssg128
(dp1171
g676
(dp1172
g992
I120
ssg558
(dp1173
g992
I90
ssg668
(dp1174
g992
I270
sssg130
(dp1175
g116
g1151
sg826
(dp1176
g992
I90
sssg132
(dp1177
S'F20'
p1178
(dp1179
g992
I90
ssS'A46'
p1180
g1153
sg722
(dp1181
g992
I90
ssg368
(dp1182
g992
I90
ssS'A41'
p1183
(dp1184
g992
I90
sssg134
(dp1185
g416
(dp1186
g992
I180
ssg1183
(dp1187
g992
I120
sssg136
(dp1188
g126
g1170
sg496
(dp1189
g992
I120
ssg132
g1184
sg134
g1187
ssg138
(dp1190
g126
g1169
sg384
(dp1191
g992
I60
sssg140
(dp1192
S'A51'
p1193
g1164
sg120
g1158
sg1180
g1155
sg142
(dp1194
g992
I90
sssg142
(dp1195
g436
(dp1196
g992
I120
ssg140
g1194
ssg144
(dp1197
g122
g1161
sg442
(dp1198
g992
I90
sssg146
(dp1199
g1006
g1000
sg148
(dp1200
g992
I90
sssg148
(dp1201
g150
(dp1202
g992
I90
ssg146
g1200
ssg150
(dp1203
g152
(dp1204
g992
I60
ssg148
g1202
ssg152
(dp1205
g150
g1204
sS'G14'
p1206
(dp1207
g992
I90
sssg154
(dp1208
g14
g998
sS'G21'
p1209
g1004
sg466
(dp1210
g992
I420
ssS'B04'
p1211
(dp1212
g992
I360
ssg152
g1207
sg156
(dp1213
g992
I90
sssg156
(dp1214
g1206
g1213
sg158
(dp1215
g992
I90
sssg158
(dp1216
g156
g1215
sg160
(dp1217
g992
I120
sssg160
(dp1218
g158
g1217
sg162
(dp1219
g992
I60
sssg162
(dp1220
g468
(dp1221
g992
I120
ssg160
g1219
ssg164
(dp1222
g1193
g1163
sg74
g1103
sg464
(dp1223
g992
I90
sssg166
(dp1224
S'R31'
p1225
(dp1226
g992
I660
ssS'R30'
p1227
(dp1228
g992
I480
ssg980
(dp1229
g992
I120
ssS'R20'
p1230
(dp1231
g992
I240
sssg168
(dp1232
g172
(dp1233
g992
I60
ssg170
(dp1234
g992
I120
sssg170
(dp1235
g234
(dp1236
g992
I120
ssS'D35'
p1237
(dp1238
g992
I240
ssg168
g1234
ssg172
(dp1239
g176
(dp1240
g992
I120
ssg168
g1233
ssg174
(dp1241
g176
(dp1242
g992
I120
ssg180
(dp1243
g992
I120
sssg176
(dp1244
g172
g1240
sg174
g1242
sS'D39'
p1245
g1238
sS'D31'
p1246
(dp1247
g992
I240
sssg178
(dp1248
g180
(dp1249
g992
I60
ssg184
(dp1250
g992
I90
sssg180
(dp1251
g174
g1243
sg178
g1249
ssg182
(dp1252
g880
(dp1253
g992
I30
ssg184
(dp1254
g992
I90
sssg184
(dp1255
S'D28'
p1256
(dp1257
g992
I150
ssg1237
g1247
sg178
g1250
sg182
g1254
ssg186
(dp1258
g196
(dp1259
g992
I90
ssg188
(dp1260
g992
I90
sssg188
(dp1261
g366
(dp1262
g992
I180
ssS'235'
p1263
(dp1264
g992
I240
ssS'234'
p1265
(dp1266
g992
I330
ssg186
g1260
sS'250'
p1267
(dp1268
g992
I180
ssg380
(dp1269
g992
I90
sssg190
(dp1270
g192
(dp1271
g992
I90
ssg830
(dp1272
g992
I90
ssS'239'
p1273
g1266
sg204
(dp1274
g992
I90
sssg192
(dp1275
g190
g1271
sg194
(dp1276
g992
I60
ssS'239'
p1277
g1264
ssg194
(dp1278
g192
g1276
sg196
(dp1279
g992
I120
sssg196
(dp1280
g194
g1279
sg186
g1259
ssg198
(dp1281
g200
(dp1282
g992
I180
ssg898
(dp1283
g992
I60
sssg200
(dp1284
g198
g1282
sg202
(dp1285
g992
I90
sssg202
(dp1286
g200
g1285
sg204
(dp1287
g992
I90
sssg204
(dp1288
g190
g1274
sg202
g1287
ssg206
(dp1289
g208
(dp1290
g992
I90
ssg222
(dp1291
g992
I60
sssg208
(dp1292
S'613'
p1293
(dp1294
g992
I420
ssg206
g1290
sS'621'
p1295
(dp1296
g992
I180
sssg210
(dp1297
g264
(dp1298
g992
I150
sssg212
(dp1299
g214
(dp1300
g992
I90
ssg218
(dp1301
g992
I90
sssg214
(dp1302
g212
g1300
sS'619'
p1303
g1294
sS'608'
p1304
(dp1305
g992
I360
ssg224
(dp1306
g992
I120
sssg216
(dp1307
g218
(dp1308
g992
I60
ssg940
(dp1309
g992
I90
sssg218
(dp1310
g212
g1301
sg216
g1308
ssg220
(dp1311
g222
(dp1312
g992
I120
ssg226
(dp1313
g992
I90
sssg222
(dp1314
g206
g1291
sg220
g1312
ssg224
(dp1315
g214
g1306
sg226
(dp1316
g992
I90
sssg226
(dp1317
g220
g1313
sg224
g1316
ssg228
(dp1318
g230
(dp1319
g992
I90
ssg40
g1038
sg424
(dp1320
g992
I240
sssg230
(dp1321
S'D43'
p1322
g1319
sg762
(dp1323
g992
I90
ssg232
(dp1324
g992
I90
sssg232
(dp1325
S'D42'
p1326
g1324
sg234
(dp1327
g992
I120
sssg234
(dp1328
g232
g1327
sg170
g1236
ssg236
(dp1329
S'A12'
p1330
(dp1331
g992
I180
ssg244
(dp1332
g992
I120
ssg954
(dp1333
g992
I90
sssg238
(dp1334
g240
(dp1335
g992
I90
sssg240
(dp1336
g238
g1335
sg246
(dp1337
g992
I150
sssg242
(dp1338
g244
(dp1339
g992
I60
ssg246
(dp1340
g992
I120
sssg244
(dp1341
g236
g1332
sg242
g1339
ssg246
(dp1342
g240
g1337
sg242
g1340
ssg248
(dp1343
g250
(dp1344
g992
I90
ssg262
(dp1345
g992
I90
sssg250
(dp1346
g248
g1344
sS'128'
p1347
(dp1348
g992
I150
ssg252
(dp1349
g992
I60
ssS'137'
p1350
(dp1351
g992
I240
sssg252
(dp1352
g250
g1349
sg254
(dp1353
g992
I60
sssg254
(dp1354
g526
(dp1355
g992
I60
ssg252
g1353
ssg256
(dp1356
S'132'
p1357
g1351
sg266
(dp1358
g992
I60
ssg258
(dp1359
g992
I90
ssg900
(dp1360
g992
I60
sssg258
(dp1361
g256
g1359
sg260
(dp1362
g992
I60
sssg260
(dp1363
g258
g1362
sg262
(dp1364
g992
I90
sssg262
(dp1365
g248
g1345
sg260
g1364
ssg264
(dp1366
g266
(dp1367
g992
I60
ssg210
g1298
ssg266
(dp1368
g264
g1367
sS'137'
p1369
g1358
ssg268
(dp1370
g270
(dp1371
g992
I120
ssg282
(dp1372
g992
I60
sssg270
(dp1373
g268
g1371
sg272
(dp1374
g992
I120
sssg272
(dp1375
g270
g1374
sg274
(dp1376
g992
I120
sssg274
(dp1377
g272
g1376
sg284
(dp1378
g992
I180
sssg276
(dp1379
g438
(dp1380
g992
I120
ssg278
(dp1381
g992
I120
sssg278
(dp1382
g276
g1381
sg280
(dp1383
g992
I120
sssg280
(dp1384
S'31'
p1385
(dp1386
g992
I660
ssg278
g1383
sg282
(dp1387
g992
I120
sssg282
(dp1388
g268
g1372
sg280
g1387
ssg284
(dp1389
g274
g1378
sg286
(dp1390
g992
I120
sssg286
(dp1391
g124
g1167
sg284
g1390
ssg288
(dp1392
g290
(dp1393
g992
I60
ssg310
(dp1394
g992
I60
sssg290
(dp1395
g288
g1393
sg292
(dp1396
g992
I120
sssg292
(dp1397
g290
g1396
sg294
(dp1398
g992
I90
sssg294
(dp1399
g292
g1398
sg296
(dp1400
g992
I120
sssg296
(dp1401
g294
g1400
ssg298
(dp1402
g300
(dp1403
g992
I90
ssg694
(dp1404
g992
I120
sssg300
(dp1405
g298
g1403
sg302
(dp1406
g992
I90
sssg302
(dp1407
g300
g1406
sS'R41'
p1408
(dp1409
g992
I270
ssg844
(dp1410
g992
I240
ssg656
(dp1411
g992
I150
ssg1225
(dp1412
g992
I330
sssg304
(dp1413
g888
(dp1414
g992
I480
ssg166
g1228
sg306
(dp1415
g992
I180
ssg966
(dp1416
g992
I90
ssg892
(dp1417
g992
I90
sssg306
(dp1418
S'R36'
p1419
g1412
sS'Q01'
p1420
g1226
sg304
g1415
sg692
(dp1421
g992
I120
ssS'D22'
p1422
(dp1423
g992
I630
sssg308
(dp1424
S'413'
p1425
(dp1426
g992
I300
ssg550
(dp1427
g992
I90
ssg310
(dp1428
g992
I90
sssg310
(dp1429
g288
g1394
sg308
g1428
ssg312
(dp1430
g314
(dp1431
g992
I240
ssg572
(dp1432
g992
I90
sssg314
(dp1433
g316
(dp1434
g992
I60
ssg312
g1431
ssg316
(dp1435
g314
g1434
sg318
(dp1436
g992
I60
sssg318
(dp1437
g316
g1436
sg320
(dp1438
g992
I90
sssg320
(dp1439
g318
g1438
sg322
(dp1440
g992
I90
sssg322
(dp1441
g320
g1440
ssg324
(dp1442
g332
(dp1443
g992
I60
ssg326
(dp1444
g992
I60
sssg326
(dp1445
g324
g1444
sg38
g1036
ssg328
(dp1446
g330
(dp1447
g992
I60
ssg336
(dp1448
g992
I120
sssg330
(dp1449
g328
g1447
sg332
(dp1450
g992
I60
sssg332
(dp1451
g330
g1450
sg324
g1443
sg1018
g1030
sS'702'
p1452
(dp1453
g992
I210
sssg334
(dp1454
g336
(dp1455
g992
I210
sssg336
(dp1456
g328
g1448
sg1029
g1453
sg334
g1455
ssg338
(dp1457
S'M11'
p1458
(dp1459
g992
I180
ssg340
(dp1460
g992
I90
ssg60
g1075
sS'J28'
p1461
g1081
ssg340
(dp1462
S'M11'
p1463
(dp1464
g992
I90
ssg338
g1460
sg1050
g1077
ssg342
(dp1465
g344
(dp1466
g992
I90
ssS'D05'
p1467
(dp1468
g992
I150
ssS'D13'
p1469
(dp1470
g992
I480
ssg356
(dp1471
g992
I90
sssg344
(dp1472
g342
g1466
sg346
(dp1473
g992
I90
sssg346
(dp1474
S'D07'
p1475
g1468
sg344
g1473
sg348
(dp1476
g992
I90
sssg348
(dp1477
g346
g1476
sg350
(dp1478
g992
I120
sssg350
(dp1479
g348
g1478
sg352
(dp1480
g992
I150
sssg352
(dp1481
g350
g1480
ssg354
(dp1482
g620
(dp1483
g992
I120
ssg356
(dp1484
g992
I120
sssg356
(dp1485
g342
g1471
sg354
g1484
ssg358
(dp1486
g360
(dp1487
g992
I90
ssg364
(dp1488
g992
I60
sssg360
(dp1489
g358
g1487
sg370
(dp1490
g992
I60
sssg362
(dp1491
g364
(dp1492
g992
I120
sssg364
(dp1493
g358
g1488
sg362
g1492
ssg366
(dp1494
g188
g1262
sg372
(dp1495
g992
I60
sssg368
(dp1496
g826
(dp1497
g992
I90
ssg132
g1182
ssg370
(dp1498
g360
g1490
sg372
(dp1499
g992
I90
sssg372
(dp1500
g366
g1495
sg370
g1499
ssg374
(dp1501
S'D14'
p1502
(dp1503
g992
I60
ssS'D15'
p1504
(dp1505
g992
I120
ssg376
(dp1506
g992
I90
sssg376
(dp1507
g374
g1506
sg82
g1113
ssg378
(dp1508
g636
(dp1509
g992
I120
ssg380
(dp1510
g992
I90
sssg380
(dp1511
g378
g1510
sS'239'
p1512
g1269
ssg382
(dp1513
S'D21'
p1514
(dp1515
g992
I90
ssg384
(dp1516
g992
I90
sssg384
(dp1517
g138
g1191
sg382
g1516
ssg386
(dp1518
g388
(dp1519
g992
I90
ssg398
(dp1520
g992
I60
sssg388
(dp1521
g386
g1519
sg1295
(dp1522
g992
I90
sssg390
(dp1523
g388
g1522
sg548
(dp1524
g992
I150
ssg208
g1296
sg394
(dp1525
g992
I300
ssS'415'
p1526
(dp1527
g992
I270
sssg392
(dp1528
g402
(dp1529
g992
I90
ssS'626'
p1530
(dp1531
g992
I90
sssg394
(dp1532
g390
g1525
sg392
g1531
sg400
(dp1533
g992
I210
ssg396
(dp1534
g992
I120
sssg396
(dp1535
g1530
g1534
sg398
(dp1536
g992
I90
sssg398
(dp1537
g386
g1520
sg396
g1536
ssg400
(dp1538
g658
(dp1539
g992
I90
ssg660
(dp1540
g992
I120
ssg402
(dp1541
g992
I120
ssg394
g1533
ssg402
(dp1542
S'629'
p1543
g1541
sg392
g1529
ssg404
(dp1544
g406
(dp1545
g992
I120
ssg414
(dp1546
g992
I90
sssg406
(dp1547
g404
g1545
sg408
(dp1548
g992
I120
ssS'A34'
p1549
(dp1550
g992
I150
sssg408
(dp1551
S'A28'
p1552
(dp1553
g992
I210
ssg406
g1548
sg410
(dp1554
g992
I90
sssg410
(dp1555
g690
(dp1556
g992
I120
ssg408
g1554
ssg412
(dp1557
g416
(dp1558
g992
I120
ssg414
(dp1559
g992
I90
sssg414
(dp1560
g404
g1546
sS'A32'
p1561
g1550
sg412
g1559
sg724
(dp1562
g992
I120
sssg416
(dp1563
g412
g1558
sg134
g1186
ssg418
(dp1564
g860
(dp1565
g992
I60
ssg864
(dp1566
g992
I90
sssg420
(dp1567
g422
(dp1568
g992
I90
ssg874
(dp1569
g992
I90
ssS'J19'
p1570
(dp1571
g992
I150
sssg422
(dp1572
g420
g1568
sS'J15'
p1573
(dp1574
g992
I180
ssS'J20'
p1575
g1071
sg866
(dp1576
g992
I90
sssg424
(dp1577
S'D43'
p1578
g1320
sg428
(dp1579
g992
I60
ssg596
(dp1580
g992
I120
sssg426
(dp1581
g428
(dp1582
g992
I120
ssg432
(dp1583
g992
I120
sssg428
(dp1584
S'10'
p1585
g1579
sg426
g1582
ssg430
(dp1586
g432
(dp1587
g992
I120
ssg542
(dp1588
g992
I120
sssg432
(dp1589
g426
g1583
sg430
g1587
ssg434
(dp1590
g440
(dp1591
g992
I120
ssg542
(dp1592
g992
I120
sssg436
(dp1593
g122
g1160
sg142
g1196
ssg438
(dp1594
g440
(dp1595
g992
I120
ssS'31'
p1596
(dp1597
g992
I840
ssg276
g1380
ssg440
(dp1598
g438
g1595
sg434
g1591
ssg442
(dp1599
g144
g1198
sg74
g1102
ssg444
(dp1600
g446
(dp1601
g992
I120
ssg450
(dp1602
g992
I60
ssg1080
g1459
sg340
g1464
sS'M16'
p1603
(dp1604
g992
I240
sssg446
(dp1605
g444
g1601
sg708
(dp1606
g992
I120
sssg448
(dp1607
g450
(dp1608
g992
I90
ssg454
(dp1609
g992
I90
sssg450
(dp1610
g1463
g1602
sg448
g1608
ssg452
(dp1611
g580
(dp1612
g992
I180
ssS'R36'
p1613
g1409
sg598
(dp1614
g992
I90
ssg602
(dp1615
g992
I120
sssg454
(dp1616
g448
g1609
sg458
(dp1617
g992
I60
sssg456
(dp1618
g964
(dp1619
g992
I120
ssg602
(dp1620
g992
I90
sssg458
(dp1621
S'M11'
p1622
g1604
sg462
(dp1623
g992
I450
ssg454
g1617
ssg460
(dp1624
g462
(dp1625
g992
I90
ssg92
g1125
ssg462
(dp1626
g460
g1625
sS'D21'
p1627
(dp1628
g992
I180
ssg458
g1623
ssg464
(dp1629
g80
g1111
sg164
g1223
ssg466
(dp1630
g68
g1090
sg154
g1210
sS'F06'
p1631
g1095
sg468
(dp1632
g992
I90
sssg468
(dp1633
S'G08'
p1634
g1632
sg162
g1221
ssg470
(dp1635
g472
(dp1636
g992
I120
sssg472
(dp1637
g470
g1636
sg474
(dp1638
g992
I150
ssg876
(dp1639
g992
I240
ssS'J13'
p1640
(dp1641
g992
I300
sssg474
(dp1642
S'F05'
p1643
g1085
sS'G06'
p1644
g1638
sg1631
g1093
ssg476
(dp1645
g480
(dp1646
g992
I120
sssg478
(dp1647
g480
(dp1648
g992
I90
ssg484
(dp1649
g992
I60
sssg480
(dp1650
g476
g1646
sg478
g1648
ssg482
(dp1651
g488
(dp1652
g992
I90
ssg484
(dp1653
g992
I90
sssg484
(dp1654
g478
g1649
sg482
g1653
ssg486
(dp1655
g488
(dp1656
g992
I90
ssg738
(dp1657
g992
I60
sssg488
(dp1658
g486
g1656
sg482
g1652
ssg490
(dp1659
g492
(dp1660
g992
I90
ssg504
(dp1661
g992
I90
sssg492
(dp1662
g490
g1660
sg494
(dp1663
g992
I120
sssg494
(dp1664
g492
g1663
sg496
(dp1665
g992
I90
sssg496
(dp1666
g494
g1665
sS'A42'
p1667
g1179
sg136
g1189
ssg498
(dp1668
g506
(dp1669
g992
I120
ssg500
(dp1670
g992
I90
sssg500
(dp1671
g498
g1670
sg502
(dp1672
g992
I150
sssg502
(dp1673
g500
g1672
sg504
(dp1674
g992
I90
sssg504
(dp1675
g490
g1661
sg502
g1674
ssg506
(dp1676
g746
(dp1677
g992
I90
ssg498
g1669
ssg508
(dp1678
g902
(dp1679
g992
I240
ssg510
(dp1680
g992
I90
ssS'123'
p1681
(dp1682
g992
I150
ssg806
(dp1683
g992
I90
sssg510
(dp1684
g508
g1680
sg512
(dp1685
g992
I90
sssg512
(dp1686
g510
g1685
sg514
(dp1687
g992
I90
sssg514
(dp1688
S'120'
p1689
g1682
sg512
g1687
sg516
(dp1690
g992
I60
ssS'127'
p1691
(dp1692
g992
I210
sssg516
(dp1693
g514
g1690
sg518
(dp1694
g992
I90
sssg518
(dp1695
g516
g1694
sg520
(dp1696
g992
I120
sssg520
(dp1697
g518
g1696
sg522
(dp1698
g992
I120
sssg522
(dp1699
g524
(dp1700
g992
I90
ssg1681
g1692
sg520
g1698
ssg524
(dp1701
g526
(dp1702
g992
I90
ssg1357
g1348
sg522
g1700
ssg526
(dp1703
g524
g1702
sg254
g1355
ssg528
(dp1704
g530
(dp1705
g992
I90
sssg530
(dp1706
g528
g1705
sg534
(dp1707
g992
I90
sssg532
(dp1708
g534
(dp1709
g992
I90
ssg536
(dp1710
g992
I120
sssg534
(dp1711
g530
g1707
sg532
g1709
ssg536
(dp1712
g540
(dp1713
g992
I60
ssg532
g1710
ssg538
(dp1714
g540
(dp1715
g992
I120
ssg820
(dp1716
g992
I270
sssg540
(dp1717
g538
g1715
sg536
g1713
ssg542
(dp1718
g430
g1588
sg434
g1592
ssg544
(dp1719
g546
(dp1720
g992
I150
ssg556
(dp1721
g992
I120
sssg546
(dp1722
g544
g1720
sg548
(dp1723
g992
I90
ssS'621'
p1724
g1527
ssg548
(dp1725
g546
g1723
sg390
g1524
sS'222'
p1726
(dp1727
g992
I150
sssg550
(dp1728
g552
(dp1729
g992
I60
ssg308
g1427
ssg552
(dp1730
g550
g1729
sg554
(dp1731
g992
I90
sssg554
(dp1732
g552
g1731
sg556
(dp1733
g992
I90
sssg556
(dp1734
g544
g1721
sS'409'
p1735
g1426
sg554
g1733
ssg558
(dp1736
g128
g1173
sg560
(dp1737
g992
I90
sssg560
(dp1738
g828
(dp1739
g992
I60
ssg558
g1737
ssg562
(dp1740
g856
(dp1741
g992
I120
ssg570
(dp1742
g992
I90
sssg564
(dp1743
g566
(dp1744
g992
I120
ssg578
(dp1745
g992
I90
sssg566
(dp1746
g564
g1744
sg568
(dp1747
g992
I90
sssg568
(dp1748
g566
g1747
sg570
(dp1749
g992
I90
sssg570
(dp1750
g568
g1749
sg562
g1742
ssg572
(dp1751
g574
(dp1752
g992
I60
ssg312
g1432
ssg574
(dp1753
g572
g1752
sg576
(dp1754
g992
I90
sssg576
(dp1755
g574
g1754
sg578
(dp1756
g992
I60
sssg578
(dp1757
g564
g1745
sg576
g1756
ssg580
(dp1758
S'03'
p1759
(dp1760
g992
I60
ssg452
g1612
ssg582
(dp1761
g580
g1760
sg584
(dp1762
g992
I120
ssg590
(dp1763
g992
I150
sssg584
(dp1764
g582
g1762
ssg586
(dp1765
g588
(dp1766
g992
I90
ssg592
(dp1767
g992
I60
sssg588
(dp1768
g594
(dp1769
g992
I120
ssg586
g1766
ssg590
(dp1770
g582
g1763
sg592
(dp1771
g992
I90
ssg896
(dp1772
g992
I180
sssg592
(dp1773
g586
g1767
sS'04'
p1774
g1771
ssg594
(dp1775
g596
(dp1776
g992
I90
ssg588
g1769
ssg596
(dp1777
g424
g1580
sg594
g1776
ssg598
(dp1778
g452
g1614
sg656
(dp1779
g992
I90
sssg600
(dp1780
g90
g1123
sg604
(dp1781
g992
I120
sssg602
(dp1782
S'R41'
p1783
g1615
sg456
g1620
ssg604
(dp1784
g600
g1781
ssg606
(dp1785
S'G14'
p1786
g1212
sg14
g999
sg608
(dp1787
g992
I120
sssg608
(dp1788
g610
(dp1789
g992
I150
ssg606
g1787
ssg610
(dp1790
g848
(dp1791
g992
I150
ssg608
g1789
ssg612
(dp1792
g374
g1503
sg614
(dp1793
g992
I90
ssg684
(dp1794
g992
I90
ssS'A25'
p1795
(dp1796
g992
I90
sssg614
(dp1797
g612
g1793
sS'F12'
p1798
g1505
sg616
(dp1799
g992
I90
ssg848
(dp1800
g992
I90
sssg616
(dp1801
g614
g1799
sg618
(dp1802
g992
I90
sssg618
(dp1803
g886
(dp1804
g992
I180
ssg616
g1802
sg628
(dp1805
g992
I90
sssg620
(dp1806
g622
(dp1807
g992
I150
ssg354
g1483
ssg622
(dp1808
g620
g1807
sg624
(dp1809
g992
I90
sssg624
(dp1810
g622
g1809
sg626
(dp1811
g992
I90
sssg626
(dp1812
g944
(dp1813
g992
I210
ssS'A14'
p1814
(dp1815
g992
I150
ssg1475
g1470
sg624
g1811
ssg628
(dp1816
S'D17'
p1817
g1805
sg630
(dp1818
g992
I90
sssg630
(dp1819
S'D20'
p1820
(dp1821
g992
I90
ssg628
g1818
ssg632
(dp1822
g634
(dp1823
g992
I120
ssg638
(dp1824
g992
I90
sssg634
(dp1825
g632
g1823
sg644
(dp1826
g992
I60
sssg636
(dp1827
g638
(dp1828
g992
I150
ssg378
g1509
sg1277
g1268
ssg638
(dp1829
g632
g1824
sg636
g1828
ssg640
(dp1830
g642
(dp1831
g992
I90
ssg646
(dp1832
g992
I60
sssg642
(dp1833
g640
g1831
ssg644
(dp1834
g634
g1826
sg646
(dp1835
g992
I90
sssg646
(dp1836
g640
g1832
sg644
g1835
ssg648
(dp1837
g650
(dp1838
g992
I60
ssg654
(dp1839
g992
I180
sssg650
(dp1840
g648
g1838
sS'213'
p1841
(dp1842
g992
I210
sssg652
(dp1843
g654
(dp1844
g992
I120
ssg926
(dp1845
g992
I150
sssg654
(dp1846
g648
g1839
sg652
g1844
ssg656
(dp1847
S'R36'
p1848
g1411
sg598
g1779
ssg658
(dp1849
S'631'
p1850
(dp1851
g992
I90
ssg1543
g1539
ssg660
(dp1852
g658
g1851
sg400
g1540
sg662
(dp1853
g992
I120
ssg668
(dp1854
g992
I210
sssg662
(dp1855
g1850
g1853
sg664
(dp1856
g992
I60
sssg664
(dp1857
g662
g1856
sg666
(dp1858
g992
I60
sssg666
(dp1859
g664
g1858
sS'635'
p1860
(dp1861
g992
I120
sssg668
(dp1862
g660
g1854
sg666
g1861
sg670
(dp1863
g992
I90
ssg128
g1174
ssg670
(dp1864
g1860
g1863
sg672
(dp1865
g992
I90
sssg672
(dp1866
g674
(dp1867
g992
I60
ssg670
g1865
ssg674
(dp1868
g676
(dp1869
g992
I90
ssg672
g1867
ssg676
(dp1870
g674
g1869
sS'640'
p1871
g1172
ssg678
(dp1872
g680
(dp1873
g992
I90
ssg958
(dp1874
g992
I90
sssg680
(dp1875
g678
g1873
sg682
(dp1876
g992
I90
sssg682
(dp1877
g680
g1876
sS'A24'
p1878
(dp1879
g992
I90
sssg684
(dp1880
g944
(dp1881
g992
I480
ssg612
g1794
sg682
g1879
sg686
(dp1882
g992
I120
ssS'A27'
p1883
(dp1884
g992
I180
sssg686
(dp1885
g1502
g1796
sg1878
g1882
sg688
(dp1886
g992
I90
sssg688
(dp1887
g690
(dp1888
g992
I60
ssS'A24'
p1889
g1884
sg686
g1886
ssg690
(dp1890
S'A31'
p1891
g1553
sg410
g1556
sg688
g1888
ssg692
(dp1892
g306
g1421
sg694
(dp1893
g992
I90
sssg694
(dp1894
g298
g1404
sg692
g1893
ssg696
(dp1895
S'19'
p1896
g1597
sg124
g1166
sS'22'
p1897
g1386
ssg698
(dp1898
g702
(dp1899
g992
I60
ssg706
(dp1900
g992
I90
sssg700
(dp1901
g702
(dp1902
g992
I90
ssg704
(dp1903
g992
I120
sssg702
(dp1904
g698
g1899
sg700
g1902
ssg704
(dp1905
g700
g1903
ssg706
(dp1906
g698
g1900
sg708
(dp1907
g992
I120
sssg708
(dp1908
g446
g1606
sg706
g1907
ssg710
(dp1909
g712
(dp1910
g992
I60
ssg716
(dp1911
g992
I90
sssg712
(dp1912
g710
g1910
sg20
g1012
ssg714
(dp1913
g716
(dp1914
g992
I90
ssg720
(dp1915
g992
I60
sssg716
(dp1916
g710
g1911
sg714
g1914
ssg718
(dp1917
g720
(dp1918
g992
I90
ssg722
(dp1919
g992
I90
sssg720
(dp1920
g714
g1915
sg718
g1918
ssg722
(dp1921
g1667
g1181
sg718
g1919
ssg724
(dp1922
S'A34'
p1923
g1562
ssg726
(dp1924
g728
(dp1925
g992
I90
ssg732
(dp1926
g992
I120
sssg728
(dp1927
g726
g1925
sg742
(dp1928
g992
I60
sssg730
(dp1929
g732
(dp1930
g992
I90
ssg736
(dp1931
g992
I90
sssg732
(dp1932
g726
g1926
sg730
g1930
ssg734
(dp1933
g736
(dp1934
g992
I120
ssg740
(dp1935
g992
I120
sssg736
(dp1936
g730
g1931
sg650
g1842
sg734
g1934
sS'221'
p1937
(dp1938
g992
I540
sssg738
(dp1939
g486
g1657
sg740
(dp1940
g992
I120
sssg740
(dp1941
g734
g1935
sg738
g1940
ssg742
(dp1942
g728
g1928
sg744
(dp1943
g992
I60
sssg744
(dp1944
g742
g1943
sg914
(dp1945
g992
I90
sssg746
(dp1946
g748
(dp1947
g992
I60
ssg506
g1677
ssg748
(dp1948
g746
g1947
sg750
(dp1949
g992
I60
sssg750
(dp1950
g748
g1949
sg752
(dp1951
g992
I90
sssg752
(dp1952
g750
g1951
sg754
(dp1953
g992
I90
sssg754
(dp1954
g752
g1953
sg756
(dp1955
g992
I90
sssg756
(dp1956
g754
g1955
sg758
(dp1957
g992
I120
sssg758
(dp1958
g760
(dp1959
g992
I90
ssg756
g1957
ssg760
(dp1960
g762
(dp1961
g992
I120
ssg758
g1959
ssg762
(dp1962
g760
g1961
sg230
g1323
ssg764
(dp1963
g766
(dp1964
g992
I90
ssg772
(dp1965
g992
I60
sssg766
(dp1966
g764
g1964
ssg768
(dp1967
g80
g1110
sg770
(dp1968
g992
I90
sssg770
(dp1969
g780
(dp1970
g992
I240
ssg782
(dp1971
g992
I180
ssg768
g1968
sg772
(dp1972
g992
I90
sssg772
(dp1973
g764
g1965
sS'A61'
p1974
g1972
ssg774
(dp1975
g84
g1116
sg776
(dp1976
g992
I90
sssg776
(dp1977
g774
g1976
sg784
(dp1978
g992
I120
sssg778
(dp1979
g780
(dp1980
g992
I120
ssg788
(dp1981
g992
I390
sssg780
(dp1982
g778
g1980
sg782
(dp1983
g992
I60
ssg770
g1970
ssg782
(dp1984
S'H02'
p1985
g1983
sS'A61'
p1986
g1971
ssg784
(dp1987
g776
g1978
sg786
(dp1988
g992
I90
sssg786
(dp1989
g784
g1988
sg788
(dp1990
g992
I240
sssg788
(dp1991
g778
g1981
sg88
g1121
sg786
g1990
ssg790
(dp1992
g792
(dp1993
g992
I90
ssg796
(dp1994
g992
I120
sssg792
(dp1995
g790
g1993
sg802
(dp1996
g992
I120
sssg794
(dp1997
g796
(dp1998
g992
I120
ssg808
(dp1999
g992
I60
sssg796
(dp2000
g790
g1994
sg794
g1998
ssg798
(dp2001
g800
(dp2002
g992
I90
ssg804
(dp2003
g992
I120
sssg800
(dp2004
g102
g1137
sg798
g2002
ssg802
(dp2005
g792
g1996
sg804
(dp2006
g992
I120
sssg804
(dp2007
g798
g2003
sg802
g2006
ssg806
(dp2008
S'120'
p2009
g1683
sg808
(dp2010
g992
I90
sssg808
(dp2011
g794
g1999
sg806
g2010
ssg810
(dp2012
g812
(dp2013
g992
I90
ssS'R14'
p2014
(dp2015
g992
I150
ssg816
(dp2016
g992
I90
sssg812
(dp2017
g810
g2013
sg822
(dp2018
g992
I60
ssg1230
(dp2019
g992
I150
sssg814
(dp2020
S'R16'
p2021
g2015
sg816
(dp2022
g992
I90
ssg818
(dp2023
g992
I150
sssg816
(dp2024
g810
g2016
sg814
g2022
ssg818
(dp2025
g814
g2023
sg820
(dp2026
g992
I90
sssg820
(dp2027
g538
g1716
sg818
g2026
sS'G21'
p2028
g1008
ssg822
(dp2029
g812
g2018
sg824
(dp2030
g992
I60
sssg824
(dp2031
g822
g2030
sg984
(dp2032
g992
I90
sssg826
(dp2033
g130
g1176
sg368
g1497
ssg828
(dp2034
g830
(dp2035
g992
I300
ssg560
g1739
ssg830
(dp2036
S'234'
p2037
g1272
sg828
g2035
ssg832
(dp2038
g834
(dp2039
g992
I120
sssg834
(dp2040
g832
g2039
sS'224'
p2041
(dp2042
g992
I120
sssg836
(dp2043
g838
(dp2044
g992
I120
ssg842
(dp2045
g992
I90
sssg838
(dp2046
g836
g2044
sg850
(dp2047
g992
I90
sssg840
(dp2048
g842
(dp2049
g992
I120
ssg846
(dp2050
g992
I90
sssg842
(dp2051
g836
g2045
sg840
g2049
ssg844
(dp2052
g302
g1410
sg846
(dp2053
g992
I120
sssg846
(dp2054
g840
g2050
sg844
g2053
ssg848
(dp2055
g610
g1791
sS'D15'
p2056
g1800
ssg850
(dp2057
g838
g2047
sg852
(dp2058
g992
I90
sssg852
(dp2059
g850
g2058
sg46
g1045
ssg854
(dp2060
g856
(dp2061
g992
I60
ssg858
(dp2062
g992
I60
sssg856
(dp2063
g854
g2061
sg562
g1741
ssg858
(dp2064
g854
g2062
sg862
(dp2065
g992
I60
sssg860
(dp2066
g862
(dp2067
g992
I90
ssg418
g1565
ssg862
(dp2068
g858
g2065
sg860
g2067
ssg864
(dp2069
g870
(dp2070
g992
I120
ssg418
g1566
ssg866
(dp2071
S'J16'
p2072
g1571
sg422
g1576
sg58
g1072
ssg868
(dp2073
g870
(dp2074
g992
I120
sssg870
(dp2075
g868
g2074
sg864
g2070
ssg872
(dp2076
g874
(dp2077
g992
I90
ssS'J12'
p2078
(dp2079
g992
I180
ssg878
(dp2080
g992
I120
sssg874
(dp2081
g420
g1569
sg1070
g1574
sg872
g2077
sg1640
(dp2082
g992
I180
sssg876
(dp2083
g472
g1639
sS'J14'
p2084
g2079
sg878
(dp2085
g992
I90
sssg878
(dp2086
g872
g2080
sS'J15'
p2087
g2082
sg876
g2085
sS'G06'
p2088
g1641
ssg880
(dp2089
g882
(dp2090
g992
I90
ssg182
g1253
ssg882
(dp2091
g880
g2090
sg1246
g1257
sg894
(dp2092
g992
I90
ssS'D26'
p2093
(dp2094
g992
I120
sssg884
(dp2095
g886
(dp2096
g992
I150
ssg888
(dp2097
g992
I120
ssg382
g1515
sS'M18'
p2098
g1628
ssg886
(dp2099
g884
g2096
sg618
g1804
sg630
g1821
ssg888
(dp2100
g884
g2097
sg304
g1414
sS'R31'
p2101
g1423
ssg890
(dp2102
g892
(dp2103
g992
I120
ssS'D26'
p2104
(dp2105
g992
I210
sssg892
(dp2106
g890
g2103
sS'R30'
p2107
g1417
ssg894
(dp2108
g882
g2092
sg2104
(dp2109
g992
I90
sssg896
(dp2110
g1256
g2094
sg890
g2105
sg894
g2109
sg590
g1772
ssg898
(dp2111
g198
g1283
sg900
(dp2112
g992
I120
sssg900
(dp2113
g256
g1360
sg898
g2112
ssg902
(dp2114
g508
g1679
sg904
(dp2115
g992
I60
sssg904
(dp2116
g902
g2115
sg906
(dp2117
g992
I90
sssg906
(dp2118
g904
g2117
sg908
(dp2119
g992
I90
sssg908
(dp2120
g834
g2042
sg906
g2119
sg910
(dp2121
g992
I180
sssg910
(dp2122
S'416'
p2123
g1727
sg908
g2121
sg912
(dp2124
g992
I120
sssg912
(dp2125
S'213'
p2126
g1938
sg910
g2124
sg914
(dp2127
g992
I120
sssg914
(dp2128
g912
g2127
sg744
g1945
ssg916
(dp2129
g918
(dp2130
g992
I90
ssg920
(dp2131
g992
I60
sssg918
(dp2132
g916
g2130
ssg920
(dp2133
g916
g2131
sg924
(dp2134
g992
I300
sssg922
(dp2135
g22
g1014
sg924
(dp2136
g992
I30
sssg924
(dp2137
g920
g2134
sg922
g2136
ssg926
(dp2138
g652
g1845
ssg928
(dp2139
g932
(dp2140
g992
I60
ssg936
(dp2141
g992
I90
sssg930
(dp2142
g932
(dp2143
g992
I60
ssg942
(dp2144
g992
I90
sssg932
(dp2145
g928
g2140
sg930
g2143
ssg934
(dp2146
g938
(dp2147
g992
I150
sssg936
(dp2148
g928
g2141
sg938
(dp2149
g992
I90
sssg938
(dp2150
g934
g2147
sg936
g2149
ssg940
(dp2151
g216
g1309
sg942
(dp2152
g992
I60
sssg942
(dp2153
g1293
g1305
sg930
g2144
sg940
g2152
ssg944
(dp2154
g946
(dp2155
g992
I90
ssg950
(dp2156
g992
I90
ssg684
g1881
sg1330
(dp2157
g992
I150
ssg626
g1813
ssg946
(dp2158
S'A15'
p2159
g2155
sS'D13'
p2160
g1815
sg956
(dp2161
g992
I90
sssg948
(dp2162
g950
(dp2163
g992
I90
ssg960
(dp2164
g992
I60
sssg950
(dp2165
g2159
g2156
sg948
g2163
ssg952
(dp2166
g954
(dp2167
g992
I90
ssg956
(dp2168
g992
I90
sssg954
(dp2169
g236
g1333
sg952
g2167
ssg956
(dp2170
S'A15'
p2171
g2157
sg946
g2161
sS'A09'
p2172
g1331
sg952
g2168
ssg958
(dp2173
g678
g1874
sg960
(dp2174
g992
I90
sssg960
(dp2175
g948
g2164
sg958
g2174
ssg962
(dp2176
g964
(dp2177
g992
I90
sssg964
(dp2178
g962
g2177
sg456
g1619
ssg966
(dp2179
S'R30'
p2180
g1416
sg968
(dp2181
g992
I120
sssg968
(dp2182
g966
g2181
ssg970
(dp2183
g972
(dp2184
g992
I120
sssg972
(dp2185
g970
g2184
sg974
(dp2186
g992
I60
sssg974
(dp2187
g972
g2186
sg976
(dp2188
g992
I120
sssg976
(dp2189
g974
g2188
sg978
(dp2190
g992
I150
sssg978
(dp2191
g976
g2190
sS'R22'
p2192
(dp2193
g992
I90
sssg980
(dp2194
g166
g1229
sg978
g2193
sg982
(dp2195
g992
I90
sssg982
(dp2196
g980
g2195
sg984
(dp2197
g992
I90
sssg984
(dp2198
S'R17'
p2199
g2019
sS'Q01'
p2200
g1231
sg982
g2197
sg824
g2032
sssS'adj'
p2201
g989
sb.